; Function Attrs: nofree norecurse nosync nounwind memory(readwrite, inaccessiblemem: none) uwtable
define internal range(i32 0, 3) i32 @ascii_toUtf8(ptr readnone captures(none) %0, ptr noundef captures(none) %1, ptr noundef readnone %2, ptr noundef captures(none) %3, ptr noundef readnone %4) #9 {
  %6 = load ptr, ptr %1, align 8, !tbaa !4
  %7 = icmp ult ptr %6, %2
  br i1 %7, label %.lr.ph, label %.thread

.lr.ph:                                           ; preds = %5, %11
  %8 = phi ptr [ %16, %11 ], [ %6, %5 ]
  %9 = load ptr, ptr %3, align 8, !tbaa !4
  %10 = icmp ult ptr %9, %4
  br i1 %10, label %11, label %.critedge

11:                                               ; preds = %.lr.ph
  %12 = getelementptr inbounds nuw i8, ptr %8, i64 1
  store ptr %12, ptr %1, align 8, !tbaa !4
  %13 = load i8, ptr %8, align 1, !tbaa !9
  %14 = load ptr, ptr %3, align 8, !tbaa !4
  %15 = getelementptr inbounds nuw i8, ptr %14, i64 1
  store ptr %15, ptr %3, align 8, !tbaa !4
  store i8 %13, ptr %14, align 1, !tbaa !9
  %16 = load ptr, ptr %1, align 8, !tbaa !4
  %17 = icmp ult ptr %16, %2
  br i1 %17, label %.lr.ph, label %.thread, !llvm.loop !122

.critedge:                                        ; preds = %.lr.ph
  %18 = icmp eq ptr %9, %4
  br i1 %18, label %19, label %.thread

.thread:                                          ; preds = %11, %5, %.critedge
  br label %19

19:                                               ; preds = %.critedge, %.thread
  %.0 = phi i32 [ 0, %.thread ], [ 2, %.critedge ]
  ret i32 %.0
}